(dp0
S'S.C.R.L.'
p1
S'SOC. COOP. A RESP. LIMITATA'
p2
sS'COOPERATIVA SOCIALE'
p3
S'ALTRE SOC. COOPERATIVE'
p4
sS'S.A.S.'
p5
S'SOC. IN ACCOMANDITA SEMPLICE'
p6
sS'S.N.C.'
p7
S'SOC. IN NOME COLLETTIVO'
p8
sS'S.P.A'
p9
S'SOC. PER AZIONI'
p12
sS'ASSOC. TRA PROFESSIONISTI'
p13
S'ASSOC. TRA PROFESSIONISTI'
p14
sS'DATO NON PRESENTE'
p15
S'DATO NON PRESENTE'
p16
sS'S.R.L.'
p17
S'SOC. A RESPONSABILITA LIMITATA'
p18
sS'ALTRE SOC. COOPERATIVE'
p19
S'ALTRE SOC. COOPERATIVE'
p20
sS'FONDAZIONI'
p21
S'FONDAZIONI'
p22
sS'ASSOCIAZIONI RICONOSCIUTE'
p23
S'ASSOCIAZIONI RICONOSCIUTE'
p24
sS'S.A.P.A.'
p25
S'SOC. IN ACCOMANDITA PER AZIONI'
p26
s.